target datalayout = "e-m:e-p270:32:32-p271:32:32-p272:64:64-i64:64-i128:128-f80:128-n8:16:32:64-S128"
target triple = "x86_64-pc-linux-gnu"

%struct.FFFilterGraph = type { %struct.AVFilterGraph, ptr, i32, i32, ptr, ptr, %struct.FFFrameQueueGlobal }
%struct.AVFilterGraph = type { ptr, ptr, i32, ptr, i32, i32, ptr, ptr, ptr }
%struct.FFFrameQueueGlobal = type { i8 }
%struct.FilterLink = type { %struct.AVFilterLink, ptr, i64, i64, i32, i32, i64, i64, i64, i64, %struct.AVRational, ptr }
%struct.AVFilterLink = type { ptr, ptr, ptr, ptr, i32, i32, i32, i32, %struct.AVRational, i32, i32, i32, %struct.AVChannelLayout, %struct.AVRational, ptr, i32, %struct.AVFilterFormatsConfig, %struct.AVFilterFormatsConfig }
%struct.AVChannelLayout = type { i32, i32, %union.anon, ptr }
%union.anon = type { i64 }
%struct.AVFilterFormatsConfig = type { ptr, ptr, ptr, ptr, ptr }
%struct.AVRational = type { i32, i32 }
%struct.FilterLinkInternal = type { %struct.FilterLink, ptr, %struct.FFFrameQueue, i32, i32, i64, i32, i32, i32, i32 }
%struct.FFFrameQueue = type { ptr, i64, i64, i64, %struct.FFFrameBucket, i64, i64, i64, i64, i32 }
%struct.FFFrameBucket = type { ptr }

@.str.3 = private unnamed_addr constant [30 x i8] c"Assertion %s failed at %s:%d\0A\00", align 1
@.str.5 = private unnamed_addr constant [28 x i8] c"libavfilter/avfiltergraph.c\00", align 1
@.str.65 = private unnamed_addr constant [11 x i8] c"index >= 0\00", align 1

; Function Attrs: nounwind uwtable
define internal void @heap_bubble_down(ptr noundef %0, ptr noundef %1, i32 noundef %2) #0 {
  %4 = alloca ptr, align 8
  %5 = alloca ptr, align 8
  %6 = alloca i32, align 4
  %7 = alloca ptr, align 8
  %8 = alloca i32, align 4
  %9 = alloca i32, align 4
  store ptr %0, ptr %4, align 8, !tbaa !4
  store ptr %1, ptr %5, align 8, !tbaa !105
  store i32 %2, ptr %6, align 4, !tbaa !20
  call void @llvm.lifetime.start.p0(i64 8, ptr %7) #11
  %10 = load ptr, ptr %4, align 8, !tbaa !4
  %11 = getelementptr inbounds nuw %struct.FFFilterGraph, ptr %10, i32 0, i32 1
  %12 = load ptr, ptr %11, align 8, !tbaa !109
  store ptr %12, ptr %7, align 8, !tbaa !104
  br label %13

13:                                               ; preds = %3
  %14 = load i32, ptr %6, align 4, !tbaa !20
  %15 = icmp sge i32 %14, 0
  br i1 %15, label %17, label %16

16:                                               ; preds = %13
  call void (ptr, i32, ptr, ...) @av_log(ptr noundef null, i32 noundef 0, ptr noundef @.str.3, ptr noundef @.str.65, ptr noundef @.str.5, i32 noundef 1399)
  call void @abort() #13
  unreachable

17:                                               ; preds = %13
  br label %18

18:                                               ; preds = %17
  br label %19

19:                                               ; preds = %18
  br label %20

20:                                               ; preds = %95, %19
  br label %21

21:                                               ; preds = %20
  call void @llvm.lifetime.start.p0(i64 4, ptr %8) #11
  %22 = load i32, ptr %6, align 4, !tbaa !20
  %23 = mul nsw i32 2, %22
  %24 = add nsw i32 %23, 1
  store i32 %24, ptr %8, align 4, !tbaa !20
  %25 = load i32, ptr %8, align 4, !tbaa !20
  %26 = load ptr, ptr %4, align 8, !tbaa !4
  %27 = getelementptr inbounds nuw %struct.FFFilterGraph, ptr %26, i32 0, i32 2
  %28 = load i32, ptr %27, align 8, !tbaa !110
  %29 = icmp sge i32 %25, %28
  br i1 %29, label %30, label %31

30:                                               ; preds = %21
  store i32 5, ptr %9, align 4
  br label %93

31:                                               ; preds = %21
  %32 = load i32, ptr %8, align 4, !tbaa !20
  %33 = add nsw i32 %32, 1
  %34 = load ptr, ptr %4, align 8, !tbaa !4
  %35 = getelementptr inbounds nuw %struct.FFFilterGraph, ptr %34, i32 0, i32 2
  %36 = load i32, ptr %35, align 8, !tbaa !110
  %37 = icmp slt i32 %33, %36
  br i1 %37, label %38, label %60

38:                                               ; preds = %31
  %39 = load ptr, ptr %7, align 8, !tbaa !104
  %40 = load i32, ptr %8, align 4, !tbaa !20
  %41 = add nsw i32 %40, 1
  %42 = sext i32 %41 to i64
  %43 = getelementptr inbounds ptr, ptr %39, i64 %42
  %44 = load ptr, ptr %43, align 8, !tbaa !105
  %45 = getelementptr inbounds nuw %struct.FilterLinkInternal, ptr %44, i32 0, i32 0
  %46 = getelementptr inbounds nuw %struct.FilterLink, ptr %45, i32 0, i32 3
  %47 = load i64, ptr %46, align 8, !tbaa !128
  %48 = load ptr, ptr %7, align 8, !tbaa !104
  %49 = load i32, ptr %8, align 4, !tbaa !20
  %50 = sext i32 %49 to i64
  %51 = getelementptr inbounds ptr, ptr %48, i64 %50
  %52 = load ptr, ptr %51, align 8, !tbaa !105
  %53 = getelementptr inbounds nuw %struct.FilterLinkInternal, ptr %52, i32 0, i32 0
  %54 = getelementptr inbounds nuw %struct.FilterLink, ptr %53, i32 0, i32 3
  %55 = load i64, ptr %54, align 8, !tbaa !128
  %56 = icmp slt i64 %47, %55
  br i1 %56, label %57, label %60

57:                                               ; preds = %38
  %58 = load i32, ptr %8, align 4, !tbaa !20
  %59 = add nsw i32 %58, 1
  store i32 %59, ptr %8, align 4, !tbaa !20
  br label %60

60:                                               ; preds = %57, %38, %31
  %61 = load ptr, ptr %5, align 8, !tbaa !105
  %62 = getelementptr inbounds nuw %struct.FilterLinkInternal, ptr %61, i32 0, i32 0
  %63 = getelementptr inbounds nuw %struct.FilterLink, ptr %62, i32 0, i32 3
  %64 = load i64, ptr %63, align 8, !tbaa !128
  %65 = load ptr, ptr %7, align 8, !tbaa !104
  %66 = load i32, ptr %8, align 4, !tbaa !20
  %67 = sext i32 %66 to i64
  %68 = getelementptr inbounds ptr, ptr %65, i64 %67
  %69 = load ptr, ptr %68, align 8, !tbaa !105
  %70 = getelementptr inbounds nuw %struct.FilterLinkInternal, ptr %69, i32 0, i32 0
  %71 = getelementptr inbounds nuw %struct.FilterLink, ptr %70, i32 0, i32 3
  %72 = load i64, ptr %71, align 8, !tbaa !128
  %73 = icmp slt i64 %64, %72
  br i1 %73, label %74, label %75

74:                                               ; preds = %60
  store i32 5, ptr %9, align 4
  br label %93

75:                                               ; preds = %60
  %76 = load ptr, ptr %7, align 8, !tbaa !104
  %77 = load i32, ptr %8, align 4, !tbaa !20
  %78 = sext i32 %77 to i64
  %79 = getelementptr inbounds ptr, ptr %76, i64 %78
  %80 = load ptr, ptr %79, align 8, !tbaa !105
  %81 = load ptr, ptr %7, align 8, !tbaa !104
  %82 = load i32, ptr %6, align 4, !tbaa !20
  %83 = sext i32 %82 to i64
  %84 = getelementptr inbounds ptr, ptr %81, i64 %83
  store ptr %80, ptr %84, align 8, !tbaa !105
  %85 = load i32, ptr %6, align 4, !tbaa !20
  %86 = load ptr, ptr %7, align 8, !tbaa !104
  %87 = load i32, ptr %6, align 4, !tbaa !20
  %88 = sext i32 %87 to i64
  %89 = getelementptr inbounds ptr, ptr %86, i64 %88
  %90 = load ptr, ptr %89, align 8, !tbaa !105
  %91 = getelementptr inbounds nuw %struct.FilterLinkInternal, ptr %90, i32 0, i32 8
  store i32 %85, ptr %91, align 8, !tbaa !94
  %92 = load i32, ptr %8, align 4, !tbaa !20
  store i32 %92, ptr %6, align 4, !tbaa !20
  store i32 0, ptr %9, align 4
  br label %93

93:                                               ; preds = %75, %74, %30
  call void @llvm.lifetime.end.p0(i64 4, ptr %8) #11
  %94 = load i32, ptr %9, align 4
  switch i32 %94, label %105 [
    i32 0, label %95
    i32 5, label %96
  ]

95:                                               ; preds = %93
  br label %20

96:                                               ; preds = %93
  %97 = load ptr, ptr %5, align 8, !tbaa !105
  %98 = load ptr, ptr %7, align 8, !tbaa !104
  %99 = load i32, ptr %6, align 4, !tbaa !20
  %100 = sext i32 %99 to i64
  %101 = getelementptr inbounds ptr, ptr %98, i64 %100
  store ptr %97, ptr %101, align 8, !tbaa !105
  %102 = load i32, ptr %6, align 4, !tbaa !20
  %103 = load ptr, ptr %5, align 8, !tbaa !105
  %104 = getelementptr inbounds nuw %struct.FilterLinkInternal, ptr %103, i32 0, i32 8
  store i32 %102, ptr %104, align 8, !tbaa !94
  call void @llvm.lifetime.end.p0(i64 8, ptr %7) #11
  ret void

105:                                              ; preds = %93
  unreachable
}

; Function Attrs: nounwind uwtable
define internal void @heap_bubble_up(ptr noundef %0, ptr noundef %1, i32 noundef %2) #0 {
  %4 = alloca ptr, align 8
  %5 = alloca ptr, align 8
  %6 = alloca i32, align 4
  %7 = alloca ptr, align 8
  %8 = alloca i32, align 4
  %9 = alloca i32, align 4
  store ptr %0, ptr %4, align 8, !tbaa !4
  store ptr %1, ptr %5, align 8, !tbaa !105
  store i32 %2, ptr %6, align 4, !tbaa !20
  call void @llvm.lifetime.start.p0(i64 8, ptr %7) #11
  %10 = load ptr, ptr %4, align 8, !tbaa !4
  %11 = getelementptr inbounds nuw %struct.FFFilterGraph, ptr %10, i32 0, i32 1
  %12 = load ptr, ptr %11, align 8, !tbaa !109
  store ptr %12, ptr %7, align 8, !tbaa !104
  br label %13

13:                                               ; preds = %3
  %14 = load i32, ptr %6, align 4, !tbaa !20
  %15 = icmp sge i32 %14, 0
  br i1 %15, label %17, label %16

16:                                               ; preds = %13
  call void (ptr, i32, ptr, ...) @av_log(ptr noundef null, i32 noundef 0, ptr noundef @.str.3, ptr noundef @.str.65, ptr noundef @.str.5, i32 noundef 1380)
  call void @abort() #13
  unreachable

17:                                               ; preds = %13
  br label %18

18:                                               ; preds = %17
  br label %19

19:                                               ; preds = %18
  br label %20

20:                                               ; preds = %61, %19
  %21 = load i32, ptr %6, align 4, !tbaa !20
  %22 = icmp ne i32 %21, 0
  br i1 %22, label %23, label %62

23:                                               ; preds = %20
  call void @llvm.lifetime.start.p0(i64 4, ptr %8) #11
  %24 = load i32, ptr %6, align 4, !tbaa !20
  %25 = sub nsw i32 %24, 1
  %26 = ashr i32 %25, 1
  store i32 %26, ptr %8, align 4, !tbaa !20
  %27 = load ptr, ptr %7, align 8, !tbaa !104
  %28 = load i32, ptr %8, align 4, !tbaa !20
  %29 = sext i32 %28 to i64
  %30 = getelementptr inbounds ptr, ptr %27, i64 %29
  %31 = load ptr, ptr %30, align 8, !tbaa !105
  %32 = getelementptr inbounds nuw %struct.FilterLinkInternal, ptr %31, i32 0, i32 0
  %33 = getelementptr inbounds nuw %struct.FilterLink, ptr %32, i32 0, i32 3
  %34 = load i64, ptr %33, align 8, !tbaa !128
  %35 = load ptr, ptr %5, align 8, !tbaa !105
  %36 = getelementptr inbounds nuw %struct.FilterLinkInternal, ptr %35, i32 0, i32 0
  %37 = getelementptr inbounds nuw %struct.FilterLink, ptr %36, i32 0, i32 3
  %38 = load i64, ptr %37, align 8, !tbaa !128
  %39 = icmp sge i64 %34, %38
  br i1 %39, label %40, label %41

40:                                               ; preds = %23
  store i32 5, ptr %9, align 4
  br label %59

41:                                               ; preds = %23
  %42 = load ptr, ptr %7, align 8, !tbaa !104
  %43 = load i32, ptr %8, align 4, !tbaa !20
  %44 = sext i32 %43 to i64
  %45 = getelementptr inbounds ptr, ptr %42, i64 %44
  %46 = load ptr, ptr %45, align 8, !tbaa !105
  %47 = load ptr, ptr %7, align 8, !tbaa !104
  %48 = load i32, ptr %6, align 4, !tbaa !20
  %49 = sext i32 %48 to i64
  %50 = getelementptr inbounds ptr, ptr %47, i64 %49
  store ptr %46, ptr %50, align 8, !tbaa !105
  %51 = load i32, ptr %6, align 4, !tbaa !20
  %52 = load ptr, ptr %7, align 8, !tbaa !104
  %53 = load i32, ptr %6, align 4, !tbaa !20
  %54 = sext i32 %53 to i64
  %55 = getelementptr inbounds ptr, ptr %52, i64 %54
  %56 = load ptr, ptr %55, align 8, !tbaa !105
  %57 = getelementptr inbounds nuw %struct.FilterLinkInternal, ptr %56, i32 0, i32 8
  store i32 %51, ptr %57, align 8, !tbaa !94
  %58 = load i32, ptr %8, align 4, !tbaa !20
  store i32 %58, ptr %6, align 4, !tbaa !20
  store i32 0, ptr %9, align 4
  br label %59

59:                                               ; preds = %41, %40
  call void @llvm.lifetime.end.p0(i64 4, ptr %8) #11
  %60 = load i32, ptr %9, align 4
  switch i32 %60, label %71 [
    i32 0, label %61
    i32 5, label %62
  ]

61:                                               ; preds = %59
  br label %20, !llvm.loop !129

62:                                               ; preds = %59, %20
  %63 = load ptr, ptr %5, align 8, !tbaa !105
  %64 = load ptr, ptr %7, align 8, !tbaa !104
  %65 = load i32, ptr %6, align 4, !tbaa !20
  %66 = sext i32 %65 to i64
  %67 = getelementptr inbounds ptr, ptr %64, i64 %66
  store ptr %63, ptr %67, align 8, !tbaa !105
  %68 = load i32, ptr %6, align 4, !tbaa !20
  %69 = load ptr, ptr %5, align 8, !tbaa !105
  %70 = getelementptr inbounds nuw %struct.FilterLinkInternal, ptr %69, i32 0, i32 8
  store i32 %68, ptr %70, align 8, !tbaa !94
  call void @llvm.lifetime.end.p0(i64 8, ptr %7) #11
  ret void

71:                                               ; preds = %59
  unreachable
}

; Function Attrs: inlinehint nounwind uwtable
define internal ptr @fffiltergraph(ptr noundef %0) #3 {
  %2 = alloca ptr, align 8
  store ptr %0, ptr %2, align 8, !tbaa !9
  %3 = load ptr, ptr %2, align 8, !tbaa !9
  ret ptr %3
}

; Function Attrs: nounwind uwtable
define void @ff_avfilter_graph_update_heap(ptr noundef %0, ptr noundef %1) #0 {
  %3 = alloca ptr, align 8
  %4 = alloca ptr, align 8
  %5 = alloca ptr, align 8
  store ptr %0, ptr %3, align 8, !tbaa !9
  store ptr %1, ptr %4, align 8, !tbaa !105
  call void @llvm.lifetime.start.p0(i64 8, ptr %5) #11
  %6 = load ptr, ptr %3, align 8, !tbaa !9
  %7 = call ptr @fffiltergraph(ptr noundef %6)
  store ptr %7, ptr %5, align 8, !tbaa !4
  %8 = load ptr, ptr %5, align 8, !tbaa !4
  %9 = load ptr, ptr %4, align 8, !tbaa !105
  %10 = load ptr, ptr %4, align 8, !tbaa !105
  %11 = getelementptr inbounds nuw %struct.FilterLinkInternal, ptr %10, i32 0, i32 8
  %12 = load i32, ptr %11, align 8, !tbaa !94
  call void @heap_bubble_up(ptr noundef %8, ptr noundef %9, i32 noundef %12)
  %13 = load ptr, ptr %5, align 8, !tbaa !4
  %14 = load ptr, ptr %4, align 8, !tbaa !105
  %15 = load ptr, ptr %4, align 8, !tbaa !105
  %16 = getelementptr inbounds nuw %struct.FilterLinkInternal, ptr %15, i32 0, i32 8
  %17 = load i32, ptr %16, align 8, !tbaa !94
  call void @heap_bubble_down(ptr noundef %13, ptr noundef %14, i32 noundef %17)
  call void @llvm.lifetime.end.p0(i64 8, ptr %5) #11
  ret void
}