; Function Attrs: nounwind uwtable
define void @ff_avfilter_graph_update_heap(ptr noundef readonly captures(none) %0, ptr noundef %1) local_unnamed_addr #0 {
  %3 = getelementptr inbounds nuw i8, ptr %1, i64 392
  %4 = load i32, ptr %3, align 8, !tbaa !173
  %5 = getelementptr i8, ptr %0, i64 64
  %.val = load ptr, ptr %5, align 8, !tbaa !187
  %6 = icmp sgt i32 %4, -1
  br i1 %6, label %.preheader.i, label %9

.preheader.i:                                     ; preds = %2
  %.not4.i = icmp eq i32 %4, 0
  br i1 %.not4.i, label %.preheader.i7, label %.lr.ph.i

.lr.ph.i:                                         ; preds = %.preheader.i
  %7 = getelementptr inbounds nuw i8, ptr %1, i64 216
  %8 = load i64, ptr %7, align 8, !tbaa !200
  br label %10

9:                                                ; preds = %2
  tail call void (ptr, i32, ptr, ...) @av_log(ptr noundef null, i32 noundef 0, ptr noundef nonnull @.str.3, ptr noundef nonnull @.str.65, ptr noundef nonnull @.str.5, i32 noundef 1380) #14
  tail call void @abort() #16
  unreachable

10:                                               ; preds = %18, %.lr.ph.i
  %.0205.i = phi i32 [ %4, %.lr.ph.i ], [ %12, %18 ]
  %11 = add nsw i32 %.0205.i, -1
  %12 = lshr i32 %11, 1
  %13 = zext nneg i32 %12 to i64
  %14 = getelementptr inbounds nuw ptr, ptr %.val, i64 %13
  %15 = load ptr, ptr %14, align 8, !tbaa !183
  %16 = getelementptr inbounds nuw i8, ptr %15, i64 216
  %17 = load i64, ptr %16, align 8, !tbaa !200
  %.not22.i = icmp slt i64 %17, %8
  br i1 %.not22.i, label %18, label %.preheader.i7

18:                                               ; preds = %10
  %19 = zext nneg i32 %.0205.i to i64
  %20 = getelementptr inbounds nuw ptr, ptr %.val, i64 %19
  store ptr %15, ptr %20, align 8, !tbaa !183
  %21 = getelementptr inbounds nuw i8, ptr %15, i64 392
  store i32 %.0205.i, ptr %21, align 8, !tbaa !173
  %.not.i = icmp ult i32 %11, 2
  br i1 %.not.i, label %.preheader.i7, label %10

.preheader.i7:                                    ; preds = %18, %10, %.preheader.i
  %.020.lcssa.i = phi i32 [ 0, %.preheader.i ], [ %12, %18 ], [ %.0205.i, %10 ]
  %22 = zext nneg i32 %.020.lcssa.i to i64
  %23 = getelementptr inbounds nuw ptr, ptr %.val, i64 %22
  store ptr %1, ptr %23, align 8, !tbaa !183
  %24 = getelementptr inbounds nuw i8, ptr %0, i64 72
  %25 = load i32, ptr %24, align 8, !tbaa !188
  %26 = shl nuw nsw i32 %.020.lcssa.i, 1
  %27 = or disjoint i32 %26, 1
  %.not38.i = icmp slt i32 %27, %25
  br i1 %.not38.i, label %.lr.ph.i8, label %heap_bubble_down.exit

.lr.ph.i8:                                        ; preds = %.preheader.i7
  %28 = getelementptr inbounds nuw i8, ptr %1, i64 216
  %29 = load i64, ptr %28, align 8, !tbaa !200
  br label %30

30:                                               ; preds = %54, %.lr.ph.i8
  %31 = phi i32 [ %27, %.lr.ph.i8 ], [ %58, %54 ]
  %32 = phi i32 [ %26, %.lr.ph.i8 ], [ %57, %54 ]
  %.02939.i = phi i32 [ %.020.lcssa.i, %.lr.ph.i8 ], [ %.028.i, %54 ]
  %33 = add nuw nsw i32 %32, 2
  %34 = icmp slt i32 %33, %25
  br i1 %34, label %35, label %47

35:                                               ; preds = %30
  %36 = zext nneg i32 %33 to i64
  %37 = getelementptr inbounds nuw ptr, ptr %.val, i64 %36
  %38 = load ptr, ptr %37, align 8, !tbaa !183
  %39 = getelementptr inbounds nuw i8, ptr %38, i64 216
  %40 = load i64, ptr %39, align 8, !tbaa !200
  %41 = zext nneg i32 %31 to i64
  %42 = getelementptr inbounds nuw ptr, ptr %.val, i64 %41
  %43 = load ptr, ptr %42, align 8, !tbaa !183
  %44 = getelementptr inbounds nuw i8, ptr %43, i64 216
  %45 = load i64, ptr %44, align 8, !tbaa !200
  %46 = icmp slt i64 %40, %45
  %spec.select.i = select i1 %46, i32 %33, i32 %31
  br label %47

47:                                               ; preds = %35, %30
  %.028.i = phi i32 [ %31, %30 ], [ %spec.select.i, %35 ]
  %48 = zext nneg i32 %.028.i to i64
  %49 = getelementptr inbounds nuw ptr, ptr %.val, i64 %48
  %50 = load ptr, ptr %49, align 8, !tbaa !183
  %51 = getelementptr inbounds nuw i8, ptr %50, i64 216
  %52 = load i64, ptr %51, align 8, !tbaa !200
  %53 = icmp slt i64 %29, %52
  %.pre10 = zext nneg i32 %.02939.i to i64
  br i1 %53, label %heap_bubble_down.exit, label %54

54:                                               ; preds = %47
  %55 = getelementptr inbounds nuw ptr, ptr %.val, i64 %.pre10
  store ptr %50, ptr %55, align 8, !tbaa !183
  %56 = getelementptr inbounds nuw i8, ptr %50, i64 392
  store i32 %.02939.i, ptr %56, align 8, !tbaa !173
  %57 = shl nuw nsw i32 %.028.i, 1
  %58 = or disjoint i32 %57, 1
  %.not.i9 = icmp slt i32 %58, %25
  br i1 %.not.i9, label %30, label %heap_bubble_down.exit

heap_bubble_down.exit:                            ; preds = %54, %47, %.preheader.i7
  %.pre-phi = phi i64 [ %22, %.preheader.i7 ], [ %48, %54 ], [ %.pre10, %47 ]
  %.029.lcssa.i = phi i32 [ %.020.lcssa.i, %.preheader.i7 ], [ %.028.i, %54 ], [ %.02939.i, %47 ]
  %59 = getelementptr inbounds nuw ptr, ptr %.val, i64 %.pre-phi
  store ptr %1, ptr %59, align 8, !tbaa !183
  store i32 %.029.lcssa.i, ptr %3, align 8, !tbaa !173
  ret void
}